target datalayout = "e-m:e-p270:32:32-p271:32:32-p272:64:64-i64:64-i128:128-f80:128-n8:16:32:64-S128"
target triple = "x86_64-pc-linux-gnu"

%struct.object = type { i32, %struct.object_id }
%struct.object_id = type { [32 x i8], i32 }
%struct.tree = type { %struct.object, ptr, i64 }

; Function Attrs: nounwind uwtable
define dso_local void @mark_tree_uninteresting(ptr noundef %0, ptr noundef %1) #0 {
  %3 = alloca ptr, align 8
  %4 = alloca ptr, align 8
  %5 = alloca ptr, align 8
  %6 = alloca i32, align 4
  store ptr %0, ptr %3, align 8, !tbaa !43
  store ptr %1, ptr %4, align 8, !tbaa !45
  call void @llvm.lifetime.start.p0(i64 8, ptr %5) #12
  %7 = load ptr, ptr %4, align 8, !tbaa !45
  %8 = icmp ne ptr %7, null
  br i1 %8, label %10, label %9

9:                                                ; preds = %2
  store i32 1, ptr %6, align 4
  br label %31

10:                                               ; preds = %2
  %11 = load ptr, ptr %4, align 8, !tbaa !45
  %12 = getelementptr inbounds nuw %struct.tree, ptr %11, i32 0, i32 0
  store ptr %12, ptr %5, align 8, !tbaa !37
  %13 = load ptr, ptr %5, align 8, !tbaa !37
  %14 = load i32, ptr %13, align 4
  %15 = lshr i32 %14, 4
  %16 = and i32 %15, 2
  %17 = icmp ne i32 %16, 0
  br i1 %17, label %18, label %19

18:                                               ; preds = %10
  store i32 1, ptr %6, align 4
  br label %31

19:                                               ; preds = %10
  %20 = load ptr, ptr %5, align 8, !tbaa !37
  %21 = load i32, ptr %20, align 4
  %22 = lshr i32 %21, 4
  %23 = or i32 %22, 2
  %24 = load i32, ptr %20, align 4
  %25 = and i32 %23, 268435455
  %26 = shl i32 %25, 4
  %27 = and i32 %24, 15
  %28 = or i32 %27, %26
  store i32 %28, ptr %20, align 4
  %29 = load ptr, ptr %3, align 8, !tbaa !43
  %30 = load ptr, ptr %4, align 8, !tbaa !45
  call void @mark_tree_contents_uninteresting(ptr noundef %29, ptr noundef %30)
  store i32 0, ptr %6, align 4
  br label %31

31:                                               ; preds = %19, %18, %9
  call void @llvm.lifetime.end.p0(i64 8, ptr %5) #12
  %32 = load i32, ptr %6, align 4
  switch i32 %32, label %34 [
    i32 0, label %33
    i32 1, label %33
  ]

33:                                               ; preds = %31, %31
  ret void

34:                                               ; preds = %31
  unreachable
}