; Function Attrs: nounwind uwtable
define dso_local void @mark_tree_uninteresting(ptr noundef %0, ptr noundef %1) local_unnamed_addr #2 {
  %.not = icmp eq ptr %1, null
  br i1 %.not, label %8, label %3

3:                                                ; preds = %2
  %4 = load i32, ptr %1, align 4
  %5 = and i32 %4, 32
  %.not6 = icmp eq i32 %5, 0
  br i1 %.not6, label %6, label %8

6:                                                ; preds = %3
  %7 = or disjoint i32 %4, 32
  store i32 %7, ptr %1, align 4
  tail call fastcc void @mark_tree_contents_uninteresting(ptr noundef %0, ptr noundef nonnull %1)
  br label %8

8:                                                ; preds = %3, %2, %6
  ret void
}